; Function Attrs: nounwind uwtable
define ptr @d2i_OSSL_CMP_MSG_bio(ptr noundef %0, ptr noundef %1) local_unnamed_addr #0 {
  %.not = icmp eq ptr %1, null
  br i1 %.not, label %10, label %3

3:                                                ; preds = %2
  %4 = load ptr, ptr %1, align 8, !tbaa !121
  %.not11 = icmp eq ptr %4, null
  br i1 %.not11, label %10, label %5

5:                                                ; preds = %3
  %6 = getelementptr inbounds nuw i8, ptr %4, i64 32
  %7 = load ptr, ptr %6, align 8, !tbaa !3
  %8 = getelementptr inbounds nuw i8, ptr %4, i64 40
  %9 = load ptr, ptr %8, align 8, !tbaa !14
  br label %10

10:                                               ; preds = %5, %3, %2
  %.08 = phi ptr [ %7, %5 ], [ null, %3 ], [ null, %2 ]
  %.0 = phi ptr [ %9, %5 ], [ null, %3 ], [ null, %2 ]
  %11 = tail call ptr @OSSL_CMP_MSG_it() #7
  %12 = tail call ptr @ASN1_item_d2i_bio_ex(ptr noundef %11, ptr noundef %0, ptr noundef %1, ptr noundef %.08, ptr noundef %.0) #7
  ret ptr %12
}